target datalayout = "e-m:e-p270:32:32-p271:32:32-p272:64:64-i64:64-i128:128-f80:128-n8:16:32:64-S128"
target triple = "x86_64-pc-linux-gnu"

%struct.parseCtx = type { ptr, ptr, i32, i32, i32, i32, i32 }

; Function Attrs: null_pointer_is_valid sspstrong uwtable
define internal zeroext i8 @dof_oid_create_internal(ptr noundef %0, ptr noundef %1, ptr noundef %2) #0 {
  %4 = alloca i8, align 1
  %5 = alloca ptr, align 8
  %6 = alloca ptr, align 8
  %7 = alloca ptr, align 8
  %8 = alloca %struct.parseCtx, align 8
  %9 = alloca i32, align 4
  store ptr %0, ptr %5, align 8
  store ptr %1, ptr %6, align 8
  store ptr %2, ptr %7, align 8
  call void @llvm.lifetime.start.p0(i64 40, ptr %8) #19
  call void @llvm.memset.p0.i64(ptr align 8 %8, i8 0, i64 40, i1 false)
  %10 = load ptr, ptr %5, align 8
  %11 = getelementptr inbounds nuw %struct.parseCtx, ptr %8, i32 0, i32 0
  store ptr %10, ptr %11, align 8
  %12 = load ptr, ptr %7, align 8
  %13 = getelementptr inbounds nuw %struct.parseCtx, ptr %8, i32 0, i32 1
  store ptr %12, ptr %13, align 8
  %14 = load ptr, ptr %5, align 8
  %15 = icmp ne ptr %14, null
  br i1 %15, label %16, label %68

16:                                               ; preds = %3
  %17 = load ptr, ptr %6, align 8
  %18 = icmp ne ptr %17, null
  br i1 %18, label %19, label %67

19:                                               ; preds = %16
  %20 = load ptr, ptr %6, align 8
  %21 = load i32, ptr %20, align 4
  %22 = getelementptr inbounds nuw %struct.parseCtx, ptr %8, i32 0, i32 2
  store i32 %21, ptr %22, align 8
  %23 = load ptr, ptr %5, align 8
  %24 = call i64 @strlen(ptr noundef %23) #22
  %25 = trunc i64 %24 to i32
  %26 = getelementptr inbounds nuw %struct.parseCtx, ptr %8, i32 0, i32 3
  store i32 %25, ptr %26, align 4
  %27 = getelementptr inbounds nuw %struct.parseCtx, ptr %8, i32 0, i32 0
  %28 = load ptr, ptr %27, align 8
  %29 = getelementptr inbounds nuw %struct.parseCtx, ptr %8, i32 0, i32 4
  %30 = load i32, ptr %29, align 8
  %31 = zext i32 %30 to i64
  %32 = getelementptr i8, ptr %28, i64 %31
  %33 = load i8, ptr %32, align 1
  %34 = sext i8 %33 to i32
  %35 = icmp eq i32 %34, 91
  br i1 %35, label %36, label %45

36:                                               ; preds = %19
  %37 = call zeroext i8 @parseFormatOID(ptr noundef %8)
  %38 = zext i8 %37 to i32
  %39 = icmp eq i32 %38, 0
  br i1 %39, label %40, label %44

40:                                               ; preds = %36
  %41 = getelementptr inbounds nuw %struct.parseCtx, ptr %8, i32 0, i32 5
  %42 = load i32, ptr %41, align 4
  %43 = load ptr, ptr %6, align 8
  store i32 %42, ptr %43, align 4
  store i8 0, ptr %4, align 1
  store i32 1, ptr %9, align 4
  br label %69

44:                                               ; preds = %36
  br label %65

45:                                               ; preds = %19
  %46 = getelementptr inbounds nuw %struct.parseCtx, ptr %8, i32 0, i32 0
  %47 = load ptr, ptr %46, align 8
  %48 = getelementptr inbounds nuw %struct.parseCtx, ptr %8, i32 0, i32 4
  %49 = load i32, ptr %48, align 8
  %50 = zext i32 %49 to i64
  %51 = getelementptr i8, ptr %47, i64 %50
  %52 = load i8, ptr %51, align 1
  %53 = sext i8 %52 to i32
  %54 = icmp eq i32 %53, 123
  br i1 %54, label %55, label %64

55:                                               ; preds = %45
  %56 = call zeroext i8 @parseHexField(ptr noundef %8)
  %57 = zext i8 %56 to i32
  %58 = icmp eq i32 %57, 0
  br i1 %58, label %59, label %63

59:                                               ; preds = %55
  %60 = getelementptr inbounds nuw %struct.parseCtx, ptr %8, i32 0, i32 5
  %61 = load i32, ptr %60, align 4
  %62 = load ptr, ptr %6, align 8
  store i32 %61, ptr %62, align 4
  store i8 0, ptr %4, align 1
  store i32 1, ptr %9, align 4
  br label %69

63:                                               ; preds = %55
  br label %64

64:                                               ; preds = %63, %45
  br label %65

65:                                               ; preds = %64, %44
  %66 = load ptr, ptr %6, align 8
  store i32 0, ptr %66, align 4
  br label %67

67:                                               ; preds = %65, %16
  br label %68

68:                                               ; preds = %67, %3
  store i8 1, ptr %4, align 1
  store i32 1, ptr %9, align 4
  br label %69

69:                                               ; preds = %68, %59, %40
  call void @llvm.lifetime.end.p0(i64 40, ptr %8) #19
  %70 = load i8, ptr %4, align 1
  ret i8 %70
}

; Function Attrs: null_pointer_is_valid sspstrong uwtable
define internal void @dof_oid_new_standard_string(ptr noundef %0, ptr noundef %1, ptr noundef %2) #0 {
  %4 = alloca ptr, align 8
  %5 = alloca ptr, align 8
  %6 = alloca ptr, align 8
  %7 = alloca i8, align 1
  %8 = alloca i32, align 4
  %9 = alloca i32, align 4
  store ptr %0, ptr %4, align 8
  store ptr %1, ptr %5, align 8
  store ptr %2, ptr %6, align 8
  %10 = load ptr, ptr %4, align 8
  %11 = icmp ne ptr %10, null
  br i1 %11, label %12, label %46

12:                                               ; preds = %3
  call void @llvm.lifetime.start.p0(i64 1, ptr %7) #19
  call void @llvm.lifetime.start.p0(i64 4, ptr %8) #19
  store i32 0, ptr %8, align 4
  %13 = load ptr, ptr %4, align 8
  %14 = call zeroext i8 @dof_oid_create_internal(ptr noundef %13, ptr noundef %8, ptr noundef null)
  store i8 %14, ptr %7, align 1
  %15 = load i8, ptr %7, align 1
  %16 = zext i8 %15 to i32
  %17 = icmp eq i32 %16, 0
  br i1 %17, label %18, label %42

18:                                               ; preds = %12
  %19 = load i32, ptr %8, align 4
  %20 = add i32 %19, 1
  %21 = zext i32 %20 to i64
  %22 = call noalias ptr @g_malloc(i64 noundef %21) #23
  %23 = load ptr, ptr %6, align 8
  store ptr %22, ptr %23, align 8
  %24 = load ptr, ptr %6, align 8
  %25 = load ptr, ptr %24, align 8
  %26 = icmp ne ptr %25, null
  br i1 %26, label %27, label %41

27:                                               ; preds = %18
  %28 = load ptr, ptr %4, align 8
  %29 = load ptr, ptr %6, align 8
  %30 = load ptr, ptr %29, align 8
  %31 = call zeroext i8 @dof_oid_create_internal(ptr noundef %28, ptr noundef %8, ptr noundef %30)
  store i8 %31, ptr %7, align 1
  %32 = load i8, ptr %7, align 1
  %33 = zext i8 %32 to i32
  %34 = icmp eq i32 %33, 0
  br i1 %34, label %35, label %38

35:                                               ; preds = %27
  %36 = load i32, ptr %8, align 4
  %37 = load ptr, ptr %5, align 8
  store i32 %36, ptr %37, align 4
  store i32 1, ptr %9, align 4
  br label %43

38:                                               ; preds = %27
  %39 = load ptr, ptr %6, align 8
  %40 = load ptr, ptr %39, align 8
  call void @g_free(ptr noundef %40)
  br label %41

41:                                               ; preds = %38, %18
  br label %42

42:                                               ; preds = %41, %12
  store i32 0, ptr %9, align 4
  br label %43

43:                                               ; preds = %42, %35
  call void @llvm.lifetime.end.p0(i64 4, ptr %8) #19
  call void @llvm.lifetime.end.p0(i64 1, ptr %7) #19
  %44 = load i32, ptr %9, align 4
  switch i32 %44, label %50 [
    i32 0, label %45
    i32 1, label %49
  ]

45:                                               ; preds = %43
  br label %46

46:                                               ; preds = %45, %3
  %47 = load ptr, ptr %5, align 8
  store i32 0, ptr %47, align 4
  %48 = load ptr, ptr %6, align 8
  store ptr null, ptr %48, align 8
  br label %49

49:                                               ; preds = %46, %43
  ret void

50:                                               ; preds = %43
  unreachable
}