; Function Attrs: null_pointer_is_valid sspstrong uwtable
define internal fastcc void @dof_oid_new_standard_string(ptr noundef %0, ptr noundef writeonly captures(none) initializes((0, 4)) %1, ptr noundef captures(none) initializes((0, 8)) %2) unnamed_addr #0 {
  %4 = alloca %struct.parseCtx, align 8
  %5 = alloca %struct.parseCtx, align 8
  %.not = icmp eq ptr %0, null
  br i1 %.not, label %.thread, label %6

6:                                                ; preds = %3
  call void @llvm.lifetime.start.p0(i64 40, ptr nonnull %5) #27
  %7 = getelementptr inbounds nuw i8, ptr %5, i64 24
  call void @llvm.memset.p0.i64(ptr noundef nonnull align 8 dereferenceable(40) %7, i8 0, i64 16, i1 false)
  store ptr %0, ptr %5, align 8
  %8 = getelementptr inbounds nuw i8, ptr %5, i64 8
  store ptr null, ptr %8, align 8
  %9 = getelementptr inbounds nuw i8, ptr %5, i64 16
  store i32 0, ptr %9, align 8
  %10 = tail call i64 @strlen(ptr noundef nonnull dereferenceable(1) %0) #25
  %11 = trunc i64 %10 to i32
  %12 = getelementptr inbounds nuw i8, ptr %5, i64 20
  store i32 %11, ptr %12, align 4
  %13 = load i8, ptr %0, align 1
  switch i8 %13, label %dof_oid_create_internal.exit.thread [
    i8 91, label %14
    i8 123, label %17
  ]

14:                                               ; preds = %6
  %15 = call fastcc zeroext i8 @parseFormatOID(ptr noundef nonnull %5)
  %16 = icmp eq i8 %15, 0
  br i1 %16, label %20, label %dof_oid_create_internal.exit.thread

17:                                               ; preds = %6
  %18 = call fastcc zeroext i8 @parseHexField(ptr noundef nonnull %5)
  %19 = icmp eq i8 %18, 0
  br i1 %19, label %20, label %dof_oid_create_internal.exit.thread

dof_oid_create_internal.exit.thread:              ; preds = %6, %17, %14
  call void @llvm.lifetime.end.p0(i64 40, ptr nonnull %5) #27
  br label %.thread

20:                                               ; preds = %17, %14
  %21 = getelementptr inbounds nuw i8, ptr %5, i64 28
  %22 = load i32, ptr %21, align 4
  call void @llvm.lifetime.end.p0(i64 40, ptr nonnull %5) #27
  %23 = add i32 %22, 1
  %24 = zext i32 %23 to i64
  %25 = tail call noalias ptr @g_malloc(i64 noundef %24) #28
  store ptr %25, ptr %2, align 8
  %.not14 = icmp eq ptr %25, null
  br i1 %.not14, label %.thread, label %26

26:                                               ; preds = %20
  call void @llvm.lifetime.start.p0(i64 40, ptr nonnull %4) #27
  %27 = getelementptr inbounds nuw i8, ptr %4, i64 24
  call void @llvm.memset.p0.i64(ptr noundef nonnull align 8 dereferenceable(40) %27, i8 0, i64 16, i1 false)
  store ptr %0, ptr %4, align 8
  %28 = getelementptr inbounds nuw i8, ptr %4, i64 8
  store ptr %25, ptr %28, align 8
  %29 = getelementptr inbounds nuw i8, ptr %4, i64 16
  store i32 %22, ptr %29, align 8
  %30 = tail call i64 @strlen(ptr noundef nonnull dereferenceable(1) %0) #25
  %31 = trunc i64 %30 to i32
  %32 = getelementptr inbounds nuw i8, ptr %4, i64 20
  store i32 %31, ptr %32, align 4
  %33 = load i8, ptr %0, align 1
  switch i8 %33, label %40 [
    i8 91, label %34
    i8 123, label %37
  ]

34:                                               ; preds = %26
  %35 = call fastcc zeroext i8 @parseFormatOID(ptr noundef nonnull %4)
  %36 = icmp eq i8 %35, 0
  br i1 %36, label %42, label %40

37:                                               ; preds = %26
  %38 = call fastcc zeroext i8 @parseHexField(ptr noundef nonnull %4)
  %39 = icmp eq i8 %38, 0
  br i1 %39, label %42, label %40

40:                                               ; preds = %26, %37, %34
  call void @llvm.lifetime.end.p0(i64 40, ptr nonnull %4) #27
  %41 = load ptr, ptr %2, align 8
  tail call void @g_free(ptr noundef %41)
  br label %.thread

42:                                               ; preds = %37, %34
  %43 = getelementptr inbounds nuw i8, ptr %4, i64 28
  %44 = load i32, ptr %43, align 4
  call void @llvm.lifetime.end.p0(i64 40, ptr nonnull %4) #27
  store i32 %44, ptr %1, align 4
  br label %45

.thread:                                          ; preds = %dof_oid_create_internal.exit.thread, %40, %20, %3
  store i32 0, ptr %1, align 4
  store ptr null, ptr %2, align 8
  br label %45

45:                                               ; preds = %42, %.thread
  ret void
}